target datalayout = "e-m:e-p270:32:32-p271:32:32-p272:64:64-i64:64-i128:128-f80:128-n8:16:32:64-S128"
target triple = "x86_64-pc-linux-gnu"

%struct._dof_2008_16_security_4 = type { ptr, ptr }
%struct._dof_2008_16_security_6_2 = type { ptr, ptr }

@hf_security_6_2_responder_request = internal global i32 0, align 4
@ett_security_6_2_responder_request = internal global i32 0, align 4

; Function Attrs: null_pointer_is_valid sspstrong uwtable
define internal i32 @dissect_2008_16_security_6_2(ptr noundef %0, ptr noundef %1, ptr noundef %2, ptr noundef %3) #0 {
  %5 = alloca ptr, align 8
  %6 = alloca ptr, align 8
  %7 = alloca ptr, align 8
  %8 = alloca ptr, align 8
  %9 = alloca i32, align 4
  %10 = alloca ptr, align 8
  %11 = alloca i32, align 4
  %12 = alloca %struct._dof_2008_16_security_4, align 8
  %13 = alloca ptr, align 8
  %14 = alloca ptr, align 8
  %15 = alloca ptr, align 8
  store ptr %0, ptr %5, align 8
  store ptr %1, ptr %6, align 8
  store ptr %2, ptr %7, align 8
  store ptr %3, ptr %8, align 8
  call void @llvm.lifetime.start.p0(i64 4, ptr %9) #19
  store i32 0, ptr %9, align 4
  call void @llvm.lifetime.start.p0(i64 8, ptr %10) #19
  %16 = load ptr, ptr %8, align 8
  store ptr %16, ptr %10, align 8
  call void @llvm.lifetime.start.p0(i64 4, ptr %11) #19
  call void @llvm.lifetime.start.p0(i64 16, ptr %12) #19
  call void @llvm.lifetime.start.p0(i64 8, ptr %13) #19
  %17 = load ptr, ptr %5, align 8
  %18 = load i32, ptr %9, align 4
  %19 = call ptr @tvb_new_subset_remaining(ptr noundef %17, i32 noundef %18)
  store ptr %19, ptr %13, align 8
  call void @llvm.lifetime.start.p0(i64 8, ptr %14) #19
  call void @llvm.lifetime.start.p0(i64 8, ptr %15) #19
  %20 = load ptr, ptr %7, align 8
  %21 = load i32, ptr @hf_security_6_2_responder_request, align 4
  %22 = load ptr, ptr %5, align 8
  %23 = load i32, ptr %9, align 4
  %24 = call ptr @proto_tree_add_item(ptr noundef %20, i32 noundef %21, ptr noundef %22, i32 noundef %23, i32 noundef 0, i32 noundef 0)
  store ptr %24, ptr %14, align 8
  %25 = load ptr, ptr %14, align 8
  %26 = load i32, ptr @ett_security_6_2_responder_request, align 4
  %27 = call ptr @proto_item_add_subtree(ptr noundef %25, i32 noundef %26)
  store ptr %27, ptr %15, align 8
  %28 = load ptr, ptr %13, align 8
  %29 = load ptr, ptr %6, align 8
  %30 = load ptr, ptr %15, align 8
  %31 = call i32 @dissect_2008_16_security_4(ptr noundef %28, ptr noundef %29, ptr noundef %30, ptr noundef %12)
  store i32 %31, ptr %11, align 4
  %32 = load ptr, ptr %14, align 8
  %33 = load i32, ptr %11, align 4
  call void @proto_item_set_len(ptr noundef %32, i32 noundef %33)
  %34 = load i32, ptr %11, align 4
  %35 = load i32, ptr %9, align 4
  %36 = add i32 %35, %34
  store i32 %36, ptr %9, align 4
  %37 = load ptr, ptr %10, align 8
  %38 = icmp ne ptr %37, null
  br i1 %38, label %39, label %48

39:                                               ; preds = %4
  %40 = getelementptr inbounds nuw %struct._dof_2008_16_security_4, ptr %12, i32 0, i32 0
  %41 = load ptr, ptr %40, align 8
  %42 = load ptr, ptr %10, align 8
  %43 = getelementptr inbounds nuw %struct._dof_2008_16_security_6_2, ptr %42, i32 0, i32 0
  store ptr %41, ptr %43, align 8
  %44 = getelementptr inbounds nuw %struct._dof_2008_16_security_4, ptr %12, i32 0, i32 1
  %45 = load ptr, ptr %44, align 8
  %46 = load ptr, ptr %10, align 8
  %47 = getelementptr inbounds nuw %struct._dof_2008_16_security_6_2, ptr %46, i32 0, i32 1
  store ptr %45, ptr %47, align 8
  br label %48

48:                                               ; preds = %39, %4
  call void @llvm.lifetime.end.p0(i64 8, ptr %15) #19
  call void @llvm.lifetime.end.p0(i64 8, ptr %14) #19
  call void @llvm.lifetime.end.p0(i64 8, ptr %13) #19
  call void @llvm.lifetime.end.p0(i64 16, ptr %12) #19
  call void @llvm.lifetime.end.p0(i64 4, ptr %11) #19
  %49 = load i32, ptr %9, align 4
  call void @llvm.lifetime.end.p0(i64 8, ptr %10) #19
  call void @llvm.lifetime.end.p0(i64 4, ptr %9) #19
  ret i32 %49
}