; Function Attrs: null_pointer_is_valid sspstrong uwtable
define internal noundef i32 @dissect_2008_16_security_6_2(ptr noundef %0, ptr noundef %1, ptr noundef %2, ptr noundef writeonly captures(address_is_null) %3) #0 {
  %5 = alloca %struct._dof_2008_16_security_4, align 8
  call void @llvm.lifetime.start.p0(i64 16, ptr nonnull %5) #27
  %6 = tail call ptr @tvb_new_subset_remaining(ptr noundef %0, i32 noundef 0)
  %7 = load i32, ptr @hf_security_6_2_responder_request, align 4
  %8 = tail call ptr @proto_tree_add_item(ptr noundef %2, i32 noundef %7, ptr noundef %0, i32 noundef 0, i32 noundef 0, i32 noundef 0)
  %9 = load i32, ptr @ett_security_6_2_responder_request, align 4
  %10 = tail call ptr @proto_item_add_subtree(ptr noundef %8, i32 noundef %9)
  %11 = call i32 @dissect_2008_16_security_4(ptr noundef %6, ptr noundef %1, ptr noundef %10, ptr noundef nonnull %5)
  call void @proto_item_set_len(ptr noundef %8, i32 noundef %11)
  %.not = icmp eq ptr %3, null
  br i1 %.not, label %17, label %12

12:                                               ; preds = %4
  %13 = load ptr, ptr %5, align 8
  store ptr %13, ptr %3, align 8
  %14 = getelementptr inbounds nuw i8, ptr %5, i64 8
  %15 = load ptr, ptr %14, align 8
  %16 = getelementptr inbounds nuw i8, ptr %3, i64 8
  store ptr %15, ptr %16, align 8
  br label %17

17:                                               ; preds = %12, %4
  call void @llvm.lifetime.end.p0(i64 16, ptr nonnull %5) #27
  ret i32 %11
}